(dp1
S'output'
p2
S"<type 'exceptions.AttributeError'> 'str' object has no attribute 'year'"
p3
sS'layer'
p4
S'/home/SlugStock/web2py/applications/SlugStock/views/appadmin.html'
p5
sS'code'
p6
S'response.write(\'<!DOCTYPE html>\\n<!--[if (gt IE 9)|!(IE)]><!--> <html class="no-js" lang="\', escape=False)\nresponse.write(T.accepted_language or \'en\')\nresponse.write(\'"> <!--<![endif]-->\\n  <head>\\n    <meta charset="utf-8">\\n    <!-- www.phpied.com/conditional-comments-block-downloads/ -->\\n    <!-- Always force latest IE rendering engine\\n         (even in intranet) & Chrome Frame\\n         Remove this if you use the .htaccess -->\\n    <meta http-equiv="X-UA-Compatible" content="IE=edge\', escape=False)\nresponse.write(not request.is_local and \',chrome=1\' or \'\')\nresponse.write(\'">\\n    <!--  Mobile Viewport Fix\\n          j.mp/mobileviewport & davidbcalhoun.com/2010/viewport-metatag\\n          device-width: Occupy full width of the screen in its current orientation\\n          initial-scale = 1.0 retains dimensions instead of zooming out if page height > device height\\n          user-scalable = yes allows the user to zoom in -->\\n    <meta name="viewport" content="width=device-width, initial-scale=1.0">\\n    <title>\', escape=False)\nresponse.write(response.title or request.application)\nresponse.write(\'</title>\\n    <!-- http://dev.w3.org/html5/markup/meta.name.html -->\\n    <meta name="application-name" content="\', escape=False)\nresponse.write(request.application)\nresponse.write(\'">\\n    <!-- Speaking of Google, don\\\'t forget to set your site up:\\n         http://google.com/webmasters -->\\n    <meta name="google-site-verification" content="">\\n    <!-- include stylesheets -->\\n    <link rel="stylesheet" href="\', escape=False)\nresponse.write(URL(\'static\',\'css/bootstrap.min.css\'))\nresponse.write(\'"/>\\n    <link rel="stylesheet" href="\', escape=False)\nresponse.write(URL(\'static\',\'css/bootstrap-theme.min.css\'))\nresponse.write(\'"/>\\n    <link rel="stylesheet" href="\', escape=False)\nresponse.write(URL(\'static\',\'css/web2py-bootstrap3.css\'))\nresponse.write(\'"/>\\n    <link rel="shortcut icon" href="\', escape=False)\nresponse.write(URL(\'static\',\'images/favicon.ico\'))\nresponse.write(\'" type="image/x-icon">\\n    <link rel="apple-touch-icon" href="\', escape=False)\nresponse.write(URL(\'static\',\'images/favicon.png\'))\nresponse.write(\'">\\n    <!-- All JavaScript at the bottom, except for Modernizr which enables\\n         HTML5 elements & feature detects -->\\n    <script src="\', escape=False)\nresponse.write(URL(\'static\',\'js/modernizr-2.8.3.min.js\'))\nresponse.write(\'"></script>\\n    <!--[if lt IE 9]>\\n        <script src="\', escape=False)\nresponse.write(URL(\'static\',\'js/respond-1.4.2.min.js\'))\nresponse.write(\'"></script>\\n        <![endif]-->\\n    <!-- Favicons -->\\n    \', escape=False)\nresponse.write(\'<script type="text/javascript"><!--\\n    // These variables are used by the web2py_ajax_init function in web2py_ajax.js (which is loaded below).\\n    var w2p_ajax_confirm_message = "\', escape=False)\nresponse.write(T(\'Are you sure you want to delete this object?\'))\nresponse.write(\'";\\n    var w2p_ajax_disable_with_message = "\', escape=False)\nresponse.write(T(\'Working...\'))\nresponse.write(\'";\\n    var w2p_ajax_date_format = "\', escape=False)\nresponse.write(T(\'%Y-%m-%d\'))\nresponse.write(\'";\\n    var w2p_ajax_datetime_format = "\', escape=False)\nresponse.write(T(\'%Y-%m-%d %H:%M:%S\'))\nresponse.write(\'";\\n    var ajax_error_500 = \\\'\', escape=False)\nresponse.write(T.M(\'An error occured, please [[reload %s]] the page\') % URL(args=request.args, vars=request.get_vars))\nresponse.write("\'\\n    //--></script>\\n", escape=False)\nresponse.files.insert(0,URL(\'static\',\'js/jquery.js\'))\nresponse.files.insert(1,URL(\'static\',\'css/calendar.css\'))\nresponse.files.insert(2,URL(\'static\',\'js/calendar.js\'))\nresponse.files.insert(3,URL(\'static\',\'js/web2py.js\'))\nresponse.include_meta()\nresponse.include_files()\nresponse.write(\'\\n\', escape=False)\nresponse.write(\' <!-- this includes jquery.js, calendar.js/.css and web2py.js -->\\n    \', escape=False)\nresponse.write(\'\\n    \', escape=False)\n# using sidebars need to know what sidebar you want to use\nmc0 = \'col-md-12\'\nmc1 = \'col-md-9\'\nmc2 = \'col-md-6\'\nleft_sidebar_enabled = globals().get(\'left_sidebar_enabled\', False)\nright_sidebar_enabled = globals().get(\'right_sidebar_enabled\', False)\nmiddle_column = {0: mc0, 1: mc1, 2: mc2}[\n(left_sidebar_enabled and 1 or 0)+(right_sidebar_enabled and 1 or 0)]\nresponse.write(\'\\n  </head>\\n  <body>\\n    <!--[if lt IE 8]><p class="browserupgrade">You are using an <strong>outdated</strong> browser. Please <a href="http://browsehappy.com/">upgrade your browser</a> to improve your experience.</p><![endif]-->\\n    <div class="flash alert alert-dismissable">\', escape=False)\nresponse.write(response.flash or \'\')\nresponse.write(\'</div>\\n    <!-- Navbar ======================================= -->\\n    <nav class="navbar navbar-inverse navbar-fixed-top" role="navigation">\\n      <div class="container-fluid">\\n        <div class="navbar-header">\\n          <button type="button" class="navbar-toggle" data-toggle="collapse" data-target=".navbar-collapse">\\n            <span class="sr-only">Toggle navigation</span>\\n            <span class="icon-bar"></span>\\n            <span class="icon-bar"></span>\\n            <span class="icon-bar"></span>\\n          </button>\\n          \', escape=False)\nresponse.write(response.logo or \'\')\nresponse.write(\'\\n        </div>\\n        <div class="collapse navbar-collapse navbar-ex1-collapse">\\n          <ul class="nav navbar-nav navbar-right">\\n            \', escape=False)\nresponse.write(\'auth\' in globals() and auth.navbar(\'Welcome\',mode=\'dropdown\') or \'\')\nresponse.write(\'\\n          </ul>\\n          \', escape=False)\nif response.menu:\n    response.write(\'\\n          \', escape=False)\n    response.write(MENU(response.menu, _class=\'nav navbar-nav\',li_class=\'dropdown\',ul_class=\'dropdown-menu\'))\n    response.write(\'\\n          \', escape=False)\n    pass\nresponse.write(\'\\n        </div>\\n      </div>\\n    </nav>\\n    <!-- Masthead ===================================== -->    \\n    \', escape=False)\nresponse.write(\'\\n    \', escape=False)\nresponse.write(\'\\n    <!-- Main ========================================= -->\\n    <!-- Begin page content -->\\n    <div class="container-fluid main-container">\\n      \', escape=False)\nif left_sidebar_enabled:\n    response.write(\'\\n        <div class="col-md-3 left-sidebar">\\n            \', escape=False)\n    response.write(\'\\n            <h3>Left Sidebar</h3>\\n            <p></p>\\n            \', escape=False)\n    response.write(\'\\n        </div>\\n      \', escape=False)\n    pass\nresponse.write(\'\\n\\n      <div class="\', escape=False)\nresponse.write(middle_column)\nresponse.write(\'">\\n        \', escape=False)\nresponse.write(\'\\n        \', escape=False)\nresponse.write(\'\\n<script><!--\\n    jQuery(document).ready(function(){\\n    jQuery("table.sortable tbody tr").mouseover( function() {\\n    jQuery(this).addClass("highlight"); }).mouseout( function() {\\n    jQuery(this).removeClass("highlight"); });\\n    jQuery(\\\'table.sortable tbody tr:odd\\\').addClass(\\\'odd\\\');\\n    jQuery(\\\'table.sortable tbody tr:even\\\').addClass(\\\'even\\\');\\n});\\n//--></script>\\n\\n\', escape=False)\nif request.function==\'index\':\n    response.write(\'\\n<h2>\', escape=False)\n    response.write(T("Available Databases and Tables"))\n    response.write(\'</h2>\\n  \', escape=False)\n    if not databases:\n        response.write(T("No databases in this application"))\n        pass\n    response.write(\'\\n  <ul class="nav nav-tabs" id="myTab">\\n  <li class="active" ><a href="#alltables" data-toggle="tab">Tables</a></li>\\n  <li><a href="#hooks" data-toggle="tab">Hooks</a></li>\\n  </ul>\\n  <div class="tab-content">\\n      <div class="tab-pane active" id="alltables">\\n        <table class="table">\\n          \', escape=False)\n    for db in sorted(databases):\n        response.write(\'\\n            \', escape=False)\n        for table in databases[db].tables:\n            response.write(\'\\n              \', escape=False)\n            qry=\'%s.%s.id>0\'%(db,table)\n            response.write(\'\\n              \', escape=False)\n            tbl=databases[db][table]\n            response.write(\'\\n              \', escape=False)\n            if hasattr(tbl,\'_primarykey\'):\n                response.write(\'\\n                \', escape=False)\n                if tbl._primarykey:\n                    response.write(\'\\n                    \', escape=False)\n                    firstkey=tbl[tbl._primarykey[0]]\n                    response.write(\'\\n                    \', escape=False)\n                    if firstkey.type in [\'string\',\'text\']:\n                        response.write(\'\\n                      \', escape=False)\n                        qry=\'%s.%s.%s!=""\'%(db,table,firstkey.name)\n                        response.write(\'\\n                    \', escape=False)\n                    else:\n                        response.write(\'\\n                      \', escape=False)\n                        qry=\'%s.%s.%s>0\'%(db,table,firstkey.name)\n                        response.write(\'\\n                    \', escape=False)\n                        pass\n                    response.write(\'\\n                \', escape=False)\n                else:\n                    response.write(\'\\n                     \', escape=False)\n                    qry=\'\'\n                    response.write(\'\\n                \', escape=False)\n                    pass\n                response.write(\'\\n              \', escape=False)\n                pass\n            response.write(\'\\n          <tr>\\n            <th style="font-size: 1.75em;">\\n              \', escape=False)\n            response.write(A("%s.%s" % (db,table),_href=URL(\'select\',args=[db],vars=dict(query=qry))))\n            response.write(\'\\n            </th>\\n            <td>\\n              \', escape=False)\n            response.write(A(str(T(\'New Record\')),_href=URL(\'insert\',args=[db,table]),_class="btn btn-default"))\n            response.write(\'\\n            </td>\\n          </tr>\\n          \', escape=False)\n            pass\n        response.write(\'\\n          \', escape=False)\n        pass\n    response.write(\'\\n        </table>\\n      </div>\\n      <div class="tab-pane" id="hooks">\\n      \', escape=False)\n    response.write(LOAD(\'appadmin\', \'hooks\', ajax=True))\n    response.write(\'\\n      </div>\\n  </div>\\n\', escape=False)\nelif request.function==\'select\':\n    response.write(\'\\n  <h2>\', escape=False)\n    response.write(XML(str(T("Database %s select"))%A(request.args[0],_href=URL(\'index\'))))\n    response.write(\'\\n  </h2>\\n  \', escape=False)\n    if tb:\n        response.write(\'\\n  <h3>\', escape=False)\n        response.write(T(\'Traceback\'))\n        response.write(\'</h3>\\n  <pre>\\n    \', escape=False)\n        response.write(tb)\n        response.write(\'\\n  </pre>\\n  \', escape=False)\n        pass\n    response.write(\'\\n  \', escape=False)\n    if table:\n        response.write(\'\\n  \', escape=False)\n        response.write(A(str(T(\'New Record\')),_href=URL(\'insert\',args=[request.args[0],table]),_class="btn btn-default"))\n        response.write(\'<br/><br/>\\n    <h3>\', escape=False)\n        response.write(T("Rows in Table"))\n        response.write(\'</h3><br/>\\n   \', escape=False)\n    else:\n        response.write(\'\\n    <h3>\', escape=False)\n        response.write(T("Rows selected"))\n        response.write(\'</h3><br/>\\n   \', escape=False)\n        pass\n    response.write(\'\\n   \', escape=False)\n    response.write(form)\n    response.write(\'\\n   <p>\', escape=False)\n    response.write(T(\'The "query" is a condition like "db.table1.field1==\\\'value\\\'". Something like "db.table1.field1==db.table2.field2" results in a SQL JOIN.\'))\n    response.write(\'<br/>\\n      \', escape=False)\n    response.write(T(\'Use (...)&(...) for AND, (...)|(...) for OR, and ~(...)  for NOT to build more complex queries.\'))\n    response.write(\'<br/>\\n      \', escape=False)\n    response.write(T(\'"update" is an optional expression like "field1=\\\'newvalue\\\'". You cannot update or delete the results of a JOIN\'))\n    response.write(\'</p>\\n    <br/><br/>\\n    <h4>\', escape=False)\n    response.write(T("%s selected", nrows))\n    response.write(\'</h4>\\n    \', escape=False)\n    if start>0:\n        response.write(A(T(\'previous %s rows\') % step,_href=URL(\'select\',args=request.args[0],vars=dict(start=start-step)),_class="btn btn-default"))\n        pass\n    response.write(\'\\n    \', escape=False)\n    if stop<nrows:\n        response.write(A(T(\'next %s rows\') % step,_href=URL(\'select\',args=request.args[0],vars=dict(start=start+step)),_class="btn btn-default"))\n        pass\n    response.write(\'\\n    \', escape=False)\n    if rows:\n        response.write(\'\\n       <div style="overflow:auto; width:80%;">\\n       \', escape=False)\n        linkto = lambda f, t, r: URL(\'update\', args=[request.args[0], r, f]) if f else "#"\n        response.write(\'\\n       \', escape=False)\n        upload=URL(\'download\',args=request.args[0])\n        response.write(\'\\n       \', escape=False)\n        response.write(SQLTABLE(rows,linkto,upload,orderby=True,_class=\'sortable\'))\n        response.write(\'\\n       </div>\\n    \', escape=False)\n        pass\n    response.write(\'\\n    <br/><br/><h3>\', escape=False)\n    response.write(T("Import/Export"))\n    response.write(\'</h3><br/>\\n    <a href="\', escape=False)\n    response.write(URL(\'csv\',args=request.args[0],vars=dict(query=query)))\n    response.write(\'" class="btn btn-default">\', escape=False)\n    response.write(T("export as csv file"))\n    response.write(\'</a>\\n  \', escape=False)\n    response.write(formcsv or \'\')\n    response.write(\'\\n\\n\', escape=False)\nelif request.function==\'insert\':\n    response.write(\'\\n  <h2>\', escape=False)\n    response.write(T("Database"))\n    response.write(\' \', escape=False)\n    response.write(A(request.args[0],_href=URL(\'index\')))\n    response.write(\'\\n    \', escape=False)\n    if hasattr(table,\'_primarykey\'):\n        response.write(\'\\n      \', escape=False)\n        fieldname=table._primarykey[0]\n        response.write(\'\\n      \', escape=False)\n        dbname=request.args[0]\n        response.write(\'\\n      \', escape=False)\n        tablename=request.args[1]\n        response.write(\'\\n      \', escape=False)\n        cond = table[fieldname].type in [\'string\',\'text\'] and \'!=""\' or \'>0\'\n        response.write(\'\\n      \', escape=False)\n        response.write(T("Table"))\n        response.write(\' \', escape=False)\n        response.write(A(tablename,_href=URL(\'select\',args=dbname,vars=dict(query=\'%s.%s.%s%s\'%(dbname,tablename,fieldname,cond)))))\n        response.write(\'\\n    \', escape=False)\n    else:\n        response.write(\'\\n      \', escape=False)\n        response.write(T("Table"))\n        response.write(\' \', escape=False)\n        response.write(A(request.args[1],_href=URL(\'select\',args=request.args[0],vars=dict(query=\'%s.%s.id>0\'%tuple(request.args[:2])))))\n        response.write(\'\\n    \', escape=False)\n        pass\n    response.write(\'\\n  </h2>\\n  <h3>\', escape=False)\n    response.write(T("New Record"))\n    response.write(\'</h3><br/>\\n  \', escape=False)\n    response.write(form)\n    response.write(\'\\n\', escape=False)\nelif request.function==\'update\':\n    response.write(\'\\n  <h2>\', escape=False)\n    response.write(T("Database"))\n    response.write(\' \', escape=False)\n    response.write(A(request.args[0],_href=URL(\'index\')))\n    response.write(\'\\n    \', escape=False)\n    if hasattr(table,\'_primarykey\'):\n        response.write(\'\\n      \', escape=False)\n        fieldname=request.vars.keys()[0]\n        response.write(\'\\n      \', escape=False)\n        dbname=request.args[0]\n        response.write(\'\\n      \', escape=False)\n        tablename=request.args[1]\n        response.write(\'\\n      \', escape=False)\n        cond = table[fieldname].type in [\'string\',\'text\'] and \'!=""\' or \'>0\'\n        response.write(\'\\n      \', escape=False)\n        response.write(T("Table"))\n        response.write(\' \', escape=False)\n        response.write(A(tablename,_href=URL(\'select\',args=dbname,vars=dict(query=\'%s.%s.%s%s\'%(dbname,tablename,fieldname,cond)))))\n        response.write(\'\\n      \', escape=False)\n        response.write(T("Record"))\n        response.write(\' \', escape=False)\n        response.write(A(\'%s=%s\'%request.vars.items()[0],_href=URL(\'update\',args=request.args[:2],vars=request.vars)))\n        response.write(\'\\n    \', escape=False)\n    else:\n        response.write(\'\\n      \', escape=False)\n        response.write(T("Table"))\n        response.write(\' \', escape=False)\n        response.write(A(request.args[1],_href=URL(\'select\',args=request.args[0],vars=dict(query=\'%s.%s.id>0\'%tuple(request.args[:2])))))\n        response.write(\'\\n      \', escape=False)\n        response.write(T("Record id"))\n        response.write(\' \', escape=False)\n        response.write(A(request.args[2],_href=URL(\'update\',args=request.args[:3])))\n        response.write(\'\\n    \', escape=False)\n        pass\n    response.write(\'\\n  </h2>\\n  <h3>\', escape=False)\n    response.write(T("Edit current record"))\n    response.write(\'</h3><br/><br/>\', escape=False)\n    response.write(form)\n    response.write(\'\\n\\n\', escape=False)\nelif request.function==\'state\':\n    response.write(\'\\n  <h2>\', escape=False)\n    response.write(T("Internal State"))\n    response.write(\'</h2>\\n  <h3>\', escape=False)\n    response.write(T("Current request"))\n    response.write(\'</h3>\\n  \', escape=False)\n    response.write(BEAUTIFY(request))\n    response.write(\'\\n  <br/><h3>\', escape=False)\n    response.write(T("Current response"))\n    response.write(\'</h3>\\n  \', escape=False)\n    response.write(BEAUTIFY(response))\n    response.write(\'\\n  <br/><h3>\', escape=False)\n    response.write(T("Current session"))\n    response.write(\'</h3>\\n  \', escape=False)\n    response.write(BEAUTIFY(session))\n    response.write(\'\\n\\n\\n\', escape=False)\nelif request.function == \'ccache\':\n    response.write(\'\\n<h2>\', escape=False)\n    T("Cache")\n    response.write(\'</h2>\\n<div class="list">\\n\\n  <div class="list-header">\\n    <h3>\', escape=False)\n    T("Statistics")\n    response.write(\'</h3>\\n  </div>\\n\\n  <div class="content">\\n    <h4>\', escape=False)\n    response.write(T("Overview"))\n    response.write(\'</h4>\\n    <p>\', escape=False)\n    response.write(T.M("Number of entries: **%s**", total[\'entries\']))\n    response.write(\'</p>\\n    \', escape=False)\n    if total[\'entries\'] > 0:\n        response.write(\'\\n    <p>\', escape=False)\n        response.write(T.M("Hit Ratio: **%(ratio)s%%** (**%(hits)s** %%{hit(hits)} and **%(misses)s** %%{miss(misses)})",\n        dict( ratio=total[\'ratio\'], hits=total[\'hits\'], misses=total[\'misses\'])))\n        response.write(\'\\n    </p>\\n    <p>\\n      \', escape=False)\n        response.write(T("Size of cache:"))\n        response.write(\'\\n      \', escape=False)\n        if object_stats:\n            response.write(\'\\n        \', escape=False)\n            response.write(T.M("**%(items)s** %%{item(items)}, **%(bytes)s** %%{byte(bytes)}", dict(items=total[\'objects\'], bytes=total[\'bytes\'])))\n            response.write(\'\\n        \', escape=False)\n            if total[\'bytes\'] > 524287:\n                response.write(\'\\n          \', escape=False)\n                response.write(T.M("(**%.0d MB**)", total[\'bytes\'] / 1048576))\n                response.write(\'\\n        \', escape=False)\n                pass\n            response.write(\'\\n      \', escape=False)\n        else:\n            response.write(\'\\n        \', escape=False)\n            response.write(T.M("**not available** (requires the Python [[guppy http://pypi.python.org/pypi/guppy/ popup]] library)"))\n            response.write(\'\\n      \', escape=False)\n            pass\n        response.write(\'\\n    </p>\\n    <p>\\n      \', escape=False)\n        response.write(T.M("Cache contains items up to **%(hours)02d** %%{hour(hours)} **%(min)02d** %%{minute(min)} **%(sec)02d** %%{second(sec)} old.",\n        dict(hours=total[\'oldest\'][0], min=total[\'oldest\'][1], sec=total[\'oldest\'][2])))\n        response.write(\'\\n    </p>\\n    \', escape=False)\n        response.write(BUTTON(T(\'Cache Keys\'), _onclick=\'jQuery("#all_keys").toggle().toggleClass( "hidden" );\'))\n        response.write(\'\\n    <div class="hidden" id="all_keys">\\n      \', escape=False)\n        response.write(total[\'keys\'])\n        response.write(\'\\n    </div>\\n    <br />\\n    \', escape=False)\n        pass\n    response.write(\'\\n\\n    <h4>\', escape=False)\n    response.write(T("RAM"))\n    response.write(\'</h4>\\n    <p>\', escape=False)\n    response.write(T.M("Number of entries: **%s**", ram[\'entries\']))\n    response.write(\'</p>\\n    \', escape=False)\n    if ram[\'entries\'] > 0:\n        response.write(\'\\n    <p>\', escape=False)\n        response.write(T.M("Hit Ratio: **%(ratio)s%%** (**%(hits)s** %%{hit(hits)} and **%(misses)s** %%{miss(misses)})",\n        dict( ratio=ram[\'ratio\'], hits=ram[\'hits\'], misses=ram[\'misses\'])))\n        response.write(\'\\n    </p>\\n    <p>\\n      \', escape=False)\n        response.write(T("Size of cache:"))\n        response.write(\'\\n      \', escape=False)\n        if object_stats:\n            response.write(\'\\n        \', escape=False)\n            response.write(T.M("**%(items)s** items, **%(bytes)s** %%{byte(bytes)}", dict(items=ram[\'objects\'], bytes=ram[\'bytes\'])))\n            response.write(\'\\n        \', escape=False)\n            if ram[\'bytes\'] > 524287:\n                response.write(\'\\n          \', escape=False)\n                response.write(T.M("(**%.0d MB**)", ram[\'bytes\'] / 10485576))\n                response.write(\'\\n        \', escape=False)\n                pass\n            response.write(\'\\n      \', escape=False)\n        else:\n            response.write(\'\\n        \', escape=False)\n            response.write(T.M("``**not available**``:red (requires the Python [[guppy http://pypi.python.org/pypi/guppy/ popup]] library)"))\n            response.write(\'\\n      \', escape=False)\n            pass\n        response.write(\'\\n    </p>\\n    <p>\\n      \', escape=False)\n        response.write(T.M("RAM contains items up to **%(hours)02d** %%{hour(hours)} **%(min)02d** %%{minute(min)} **%(sec)02d** %%{second(sec)} old.",\n        dict(hours=ram[\'oldest\'][0], min=ram[\'oldest\'][1], sec=ram[\'oldest\'][2])))\n        response.write(\'\\n    </p>\\n    \', escape=False)\n        response.write(BUTTON(T(\'RAM Cache Keys\'), _onclick=\'jQuery("#ram_keys").toggle().toggleClass( "hidden" );\'))\n        response.write(\'\\n    <div class="hidden" id="ram_keys">\\n      \', escape=False)\n        response.write(ram[\'keys\'])\n        response.write(\'\\n    </div>\\n    <br />\\n    \', escape=False)\n        pass\n    response.write(\'\\n\\n    <h4>\', escape=False)\n    response.write(T("DISK"))\n    response.write(\'</h4>\\n    <p>\', escape=False)\n    response.write(T.M("Number of entries: **%s**", disk[\'entries\']))\n    response.write(\'</p>\\n    \', escape=False)\n    if disk[\'entries\'] > 0:\n        response.write(\'\\n      <p>\\n      \', escape=False)\n        response.write(T.M("Hit Ratio: **%(ratio)s%%** (**%(hits)s** %%{hit(hits)} and **%(misses)s** %%{miss(misses)})",\n        dict(ratio=disk[\'ratio\'], hits=disk[\'hits\'], misses=disk[\'misses\'])))\n        response.write(\'\\n      </p>\\n      <p>\\n      \', escape=False)\n        response.write(T("Size of cache:"))\n        response.write(\'\\n      \', escape=False)\n        if object_stats:\n            response.write(\'\\n        \', escape=False)\n            response.write(T.M("**%(items)s** %%{item(items)}, **%(bytes)s** %%{byte(bytes)}", dict( items=disk[\'objects\'], bytes=disk[\'bytes\'])))\n            response.write(\'\\n        \', escape=False)\n            if disk[\'bytes\'] > 524287:\n                response.write(\'\\n          \', escape=False)\n                response.write(T.M("(**%.0d MB**)", disk[\'bytes\'] / 1048576))\n                response.write(\'\\n        \', escape=False)\n                pass\n            response.write(\'\\n      \', escape=False)\n        else:\n            response.write(\'\\n        \', escape=False)\n            response.write(T.M("``**not available**``:red (requires the Python [[guppy http://pypi.python.org/pypi/guppy/ popup]] library)"))\n            response.write(\'\\n      \', escape=False)\n            pass\n        response.write(\'\\n      </p>\\n      <p>\\n      \', escape=False)\n        response.write(T.M("DISK contains items up to **%(hours)02d** %%{hour(hours)} **%(min)02d** %%{minute(min)} **%(sec)02d** %%{second(sec)} old.",\n        dict(hours=disk[\'oldest\'][0], min=disk[\'oldest\'][1], sec=disk[\'oldest\'][2])))\n        response.write(\'\\n      </p>\\n      \', escape=False)\n        response.write(BUTTON(T(\'Disk Cache Keys\'), _onclick=\'jQuery("#disk_keys").toggle().toggleClass( "hidden" );\'))\n        response.write(\'\\n      <div class="hidden" id="disk_keys">\\n      \', escape=False)\n        response.write(disk[\'keys\'])\n        response.write(\'\\n      </div>\\n      <br />\\n    \', escape=False)\n        pass\n    response.write(\'\\n  </div>\\n\\n  <div class="list-header">\\n    <h3>\', escape=False)\n    response.write(T("Manage Cache"))\n    response.write(\'</h3>\\n  </div>\\n\\n  <div class="content">\\n    <p>\\n      \', escape=False)\n    response.write(form)\n    response.write(\'\\n    </p>\\n  </div>\\n</div>\\n<div class="clear"></div>\\n\', escape=False)\n    pass\nresponse.write(\'\\n\\n\', escape=False)\nif request.function==\'graph_model\':\n    response.write(\'\\n<h2>\', escape=False)\n    response.write(T("Graph Model"))\n    response.write(\'</h2>\\n  \', escape=False)\n    if not pgv:\n        response.write(\'\\n    \', escape=False)\n        response.write(T(\'pygraphviz library not found\'))\n        response.write(\'\\n  \', escape=False)\n    elif not databases:\n        response.write(\'\\n    \', escape=False)\n        response.write(T("No databases in this application"))\n        response.write(\'\\n  \', escape=False)\n    else:\n        response.write(\'\\t   \\n    <div class="btn-group">\\n      <a class="btn dropdown-toggle" data-toggle="dropdown" href="#">\\n        <i class="icon-download"></i> \', escape=False)\n        response.write(T(\'Save model as...\'))\n        response.write(\'\\n        <span class="caret"></span>\\n      </a>\\n      <ul class="dropdown-menu">\\n          <li><a href="\', escape=False)\n        response.write(URL(\'appadmin\', \'bg_graph_model\', args=[\'png\']))\n        response.write(\'">png</a></li>\\n          <li><a href="\', escape=False)\n        response.write(URL(\'appadmin\', \'bg_graph_model\', args=[\'svg\']))\n        response.write(\'">svg</a></li>\\n          <li><a href="\', escape=False)\n        response.write(URL(\'appadmin\', \'bg_graph_model\', args=[\'pdf\']))\n        response.write(\'">pdf</a></li>\\n          <li><a href="\', escape=False)\n        response.write(URL(\'appadmin\', \'bg_graph_model\', args=[\'ps\']))\n        response.write(\'">ps</a></li>          \\n          <li><a href="\', escape=False)\n        response.write(URL(\'appadmin\', \'bg_graph_model\', args=[\'dot\']))\n        response.write(\'">dot</a></li>                                   \\n      </ul>\\n    </div>\\n    <br />\\n    \', escape=False)\n        response.write(IMG(_src=URL(\'appadmin\', \'bg_graph_model\')))\n        response.write(\'\\n  \', escape=False)\n        pass\n    response.write(\'\\n\', escape=False)\n    pass\nresponse.write(\'\\n\\n\', escape=False)\nif request.function == \'manage\':\n    response.write(\'\\n<h2>\', escape=False)\n    response.write(heading)\n    response.write(\'</h2>\\n<ul class="nav nav-tabs">\\n  \', escape=False)\n    for k, tablename in enumerate(tablenames):\n        response.write(\'\\n  <li\', escape=False)\n        response.write(XML(\' class="active"\') if k == 0 else \'\')\n        response.write(\'>\\n    <a href="#table-\', escape=False)\n        response.write(tablename)\n        response.write(\'" data-toggle="tab">\', escape=False)\n        response.write(labels[k])\n        response.write(\'</a>\\n  </li>\\n  \', escape=False)\n        pass\n    response.write(\'\\n</ul>\\n\\n<div class="tab-content">\\n  \', escape=False)\n    for k, tablename in enumerate(tablenames):\n        response.write(\'\\n  <div class="tab-pane\', escape=False)\n        response.write(XML(\' active\') if k == 0 else \'\')\n        response.write(\'" id="table-\', escape=False)\n        response.write(tablename)\n        response.write(\'">\\n    \', escape=False)\n        response.write(LOAD(f=\'manage.load\', args=[request.args(0), k], ajax=True))\n        response.write(\'\\n  </div>\\n  \', escape=False)\n        pass\n    response.write(\'\\n</div>\\n\', escape=False)\n    pass\nresponse.write(\'\\n\', escape=False)\nresponse.write(\'\\n        \', escape=False)\nresponse.write(\'\\n      </div>\\n\\n      \', escape=False)\nif right_sidebar_enabled:\n    response.write(\'\\n        <div class="col-md-3">\\n            \', escape=False)\n    response.write(\'\\n            <h3>Right Sidebar</h3>\\n            <p></p>\\n            \', escape=False)\n    response.write(\'\\n        </div>\\n      \', escape=False)\n    pass\nresponse.write(\'\\n\\n    </div>\\n\\n    \', escape=False)\nresponse.write(\' <!-- this is default footer -->      \\n    <footer class="footer">\\n      <div class="container-fluid">\\n        <div class="copyright pull-left">\', escape=False)\nresponse.write(T(\'Copyright\'))\nresponse.write(\' &#169; \', escape=False)\nresponse.write(request.now.year)\nresponse.write(\'</div>\\n          <div id="poweredBy" class="pull-right">\\n            \', escape=False)\nresponse.write(T(\'Powered by\'))\nresponse.write(\'\\n            <a href="http://www.web2py.com/">web2py</a>\\n          </div>\\n      </div>\\n    </footer>\\n    \', escape=False)\nresponse.write(\'\\n    <!-- The javascript =============================== -->\\n    <script src="\', escape=False)\nresponse.write(URL(\'static\',\'js/bootstrap.min.js\'))\nresponse.write(\'"></script>\\n    <script src="\', escape=False)\nresponse.write(URL(\'static\',\'js/web2py-bootstrap3.js\'))\nresponse.write(\'"></script>\\n    \', escape=False)\nresponse.write(\'\\n    \', escape=False)\nif response.google_analytics_id:\n    response.write(\'\\n    <!-- Analytics ==================================== -->\\n    <script src="\', escape=False)\n    response.write(URL(\'static\',\'js/analytics.min.js\'))\n    response.write(\'"></script>\\n    <script type="text/javascript">\\n      analytics.initialize({\\n      \\\'Google Analytics\\\':{trackingId:\\\'\', escape=False)\n    response.write(response.google_analytics_id)\n    response.write("\'}\\n      });\\n    </script>\\n    ", escape=False)\n    pass\nresponse.write(\'\\n    <!-- Share ============================y============ -->\\n    <script src="\', escape=False)\nresponse.write(URL(\'static\',\'js/share.js\',vars=dict(static=URL(\'static\',\'images\'))))\nresponse.write(\'"></script>\\n  </body>\\n</html>\\n\', escape=False)'
p7
sS'snapshot'
p8
(dp9
S'exception'
p10
(dp11
S'__hash__'
p12
S"<method-wrapper '__hash__' of exceptions.AttributeError object>"
p13
sS'__setattr__'
p14
S"<method-wrapper '__setattr__' of exceptions.AttributeError object>"
p15
sS'__reduce_ex__'
p16
S'<built-in method __reduce_ex__ of exceptions.AttributeError object>'
p17
sS'__getslice__'
p18
S"<method-wrapper '__getslice__' of exceptions.AttributeError object>"
p19
sS'__getitem__'
p20
S"<method-wrapper '__getitem__' of exceptions.AttributeError object>"
p21
sS'__setstate__'
p22
S'<built-in method __setstate__ of exceptions.AttributeError object>'
p23
sS'args'
p24
S'("\'str\' object has no attribute \'year\'",)'
p25
sS'__reduce__'
p26
S'<built-in method __reduce__ of exceptions.AttributeError object>'
p27
sS'__str__'
p28
S"<method-wrapper '__str__' of exceptions.AttributeError object>"
p29
sS'__format__'
p30
S'<built-in method __format__ of exceptions.AttributeError object>'
p31
sS'__getattribute__'
p32
S"<method-wrapper '__getattribute__' of exceptions.AttributeError object>"
p33
sS'__class__'
p34
S"<type 'exceptions.AttributeError'>"
p35
sS'__unicode__'
p36
S'<built-in method __unicode__ of exceptions.AttributeError object>'
p37
sS'__delattr__'
p38
S"<method-wrapper '__delattr__' of exceptions.AttributeError object>"
p39
sS'__subclasshook__'
p40
S'<built-in method __subclasshook__ of type object>'
p41
sS'__repr__'
p42
S"<method-wrapper '__repr__' of exceptions.AttributeError object>"
p43
sS'__dict__'
p44
S'{}'
p45
sS'__sizeof__'
p46
S'<built-in method __sizeof__ of exceptions.AttributeError object>'
p47
sS'__doc__'
p48
S"'Attribute not found.'"
p49
sS'__init__'
p50
S"<method-wrapper '__init__' of exceptions.AttributeError object>"
p51
sS'__new__'
p52
S'<built-in method __new__ of type object>'
p53
ssS'evalue'
p54
S"'str' object has no attribute 'year'"
p55
sS'request'
p56
cgluon.html
XML_unpickle
p57
(S's\xfd\\\x00\x00<div><table><tr><td style="font-weight:bold;vertical-align:top;">ajax</td><td style="vertical-align:top;">:</td><td><div>False</div></td></tr><tr><td style="font-weight:bold;vertical-align:top;">application</td><td style="vertical-align:top;">:</td><td><div>SlugStock</div></td></tr><tr><td style="font-weight:bold;vertical-align:top;">args</td><td style="vertical-align:top;">:</td><td><div><table><tr><td><div>db</div></td></tr></table></div></td></tr><tr><td style="font-weight:bold;vertical-align:top;">cid</td><td style="vertical-align:top;">:</td><td><div>None</div></td></tr><tr><td style="font-weight:bold;vertical-align:top;">client</td><td style="vertical-align:top;">:</td><td><div>169.233.212.201</div></td></tr><tr><td style="font-weight:bold;vertical-align:top;">controller</td><td style="vertical-align:top;">:</td><td><div>appadmin</div></td></tr><tr><td style="font-weight:bold;vertical-align:top;">cookies</td><td style="vertical-align:top;">:</td><td><div><table><tr><td style="font-weight:bold;vertical-align:top;">session_id_admin</td><td style="vertical-align:top;">:</td><td><div>169.233.212.201-b4efc9ed-8ec7-47d8-ae75-9744f69ce0cc<table><tr><td style="font-weight:bold;vertical-align:top;">comment</td><td style="vertical-align:top;">:</td><td><div></div></td></tr><tr><td style="font-weight:bold;vertical-align:top;">domain</td><td style="vertical-align:top;">:</td><td><div></div></td></tr><tr><td style="font-weight:bold;vertical-align:top;">expires</td><td style="vertical-align:top;">:</td><td><div></div></td></tr><tr><td style="font-weight:bold;vertical-align:top;">httponly</td><td style="vertical-align:top;">:</td><td><div></div></td></tr><tr><td style="font-weight:bold;vertical-align:top;">max-age</td><td style="vertical-align:top;">:</td><td><div></div></td></tr><tr><td style="font-weight:bold;vertical-align:top;">path</td><td style="vertical-align:top;">:</td><td><div></div></td></tr><tr><td style="font-weight:bold;vertical-align:top;">secure</td><td style="vertical-align:top;">:</td><td><div></div></td></tr><tr><td style="font-weight:bold;vertical-align:top;">version</td><td style="vertical-align:top;">:</td><td><div></div></td></tr></table></div></td></tr><tr><td style="font-weight:bold;vertical-align:top;">session_id_basecode</td><td style="vertical-align:top;">:</td><td><div>169.233.212.201-0f32e4d2-aeab-42c7-ad3c-3b1d86facf8f<table><tr><td style="font-weight:bold;vertical-align:top;">comment</td><td style="vertical-align:top;">:</td><td><div></div></td></tr><tr><td style="font-weight:bold;vertical-align:top;">domain</td><td style="vertical-align:top;">:</td><td><div></div></td></tr><tr><td style="font-weight:bold;vertical-align:top;">expires</td><td style="vertical-align:top;">:</td><td><div></div></td></tr><tr><td style="font-weight:bold;vertical-align:top;">httponly</td><td style="vertical-align:top;">:</td><td><div></div></td></tr><tr><td style="font-weight:bold;vertical-align:top;">max-age</td><td style="vertical-align:top;">:</td><td><div></div></td></tr><tr><td style="font-weight:bold;vertical-align:top;">path</td><td style="vertical-align:top;">:</td><td><div></div></td></tr><tr><td style="font-weight:bold;vertical-align:top;">secure</td><td style="vertical-align:top;">:</td><td><div></div></td></tr><tr><td style="font-weight:bold;vertical-align:top;">version</td><td style="vertical-align:top;">:</td><td><div></div></td></tr></table></div></td></tr><tr><td style="font-weight:bold;vertical-align:top;">session_id_slugstock</td><td style="vertical-align:top;">:</td><td><div>169.233.212.201-5949cd38-c621-4ab6-8418-c4520cf9416f<table><tr><td style="font-weight:bold;vertical-align:top;">comment</td><td style="vertical-align:top;">:</td><td><div></div></td></tr><tr><td style="font-weight:bold;vertical-align:top;">domain</td><td style="vertical-align:top;">:</td><td><div></div></td></tr><tr><td style="font-weight:bold;vertical-align:top;">expires</td><td style="vertical-align:top;">:</td><td><div></div></td></tr><tr><td style="font-weight:bold;vertical-align:top;">httponly</td><td style="vertical-align:top;">:</td><td><div></div></td></tr><tr><td style="font-weight:bold;vertical-align:top;">max-age</td><td style="vertical-align:top;">:</td><td><div></div></td></tr><tr><td style="font-weight:bold;vertical-align:top;">path</td><td style="vertical-align:top;">:</td><td><div></div></td></tr><tr><td style="font-weight:bold;vertical-align:top;">secure</td><td style="vertical-align:top;">:</td><td><div></div></td></tr><tr><td style="font-weight:bold;vertical-align:top;">version</td><td style="vertical-align:top;">:</td><td><div></div></td></tr></table></div></td></tr><tr><td style="font-weight:bold;vertical-align:top;">session_id_welcome</td><td style="vertical-align:top;">:</td><td><div>169.233.212.201-e84db275-fef5-4b79-ab46-de0d701abef0<table><tr><td style="font-weight:bold;vertical-align:top;">comment</td><td style="vertical-align:top;">:</td><td><div></div></td></tr><tr><td style="font-weight:bold;vertical-align:top;">domain</td><td style="vertical-align:top;">:</td><td><div></div></td></tr><tr><td style="font-weight:bold;vertical-align:top;">expires</td><td style="vertical-align:top;">:</td><td><div></div></td></tr><tr><td style="font-weight:bold;vertical-align:top;">httponly</td><td style="vertical-align:top;">:</td><td><div></div></td></tr><tr><td style="font-weight:bold;vertical-align:top;">max-age</td><td style="vertical-align:top;">:</td><td><div></div></td></tr><tr><td style="font-weight:bold;vertical-align:top;">path</td><td style="vertical-align:top;">:</td><td><div></div></td></tr><tr><td style="font-weight:bold;vertical-align:top;">secure</td><td style="vertical-align:top;">:</td><td><div></div></td></tr><tr><td style="font-weight:bold;vertical-align:top;">version</td><td style="vertical-align:top;">:</td><td><div></div></td></tr></table></div></td></tr></table></div></td></tr><tr><td style="font-weight:bold;vertical-align:top;">env</td><td style="vertical-align:top;">:</td><td><div><table><tr><td style="font-weight:bold;vertical-align:top;">CONTENT_LENGTH</td><td style="vertical-align:top;">:</td><td><div></div></td></tr><tr><td style="font-weight:bold;vertical-align:top;">CONTENT_TYPE</td><td style="vertical-align:top;">:</td><td><div></div></td></tr><tr><td style="font-weight:bold;vertical-align:top;">DOCUMENT_ROOT</td><td style="vertical-align:top;">:</td><td><div>/usr/local/openresty/nginx/html</div></td></tr><tr><td style="font-weight:bold;vertical-align:top;">HTTPS</td><td style="vertical-align:top;">:</td><td><div>on</div></td></tr><tr><td style="font-weight:bold;vertical-align:top;">HTTP_ACCEPT</td><td style="vertical-align:top;">:</td><td><div>text/html,application/xhtml+xml,application/xml;q=0.9,*/*;q=0.8</div></td></tr><tr><td style="font-weight:bold;vertical-align:top;">HTTP_ACCEPT_ENCODING</td><td style="vertical-align:top;">:</td><td><div>gzip, deflate</div></td></tr><tr><td style="font-weight:bold;vertical-align:top;">HTTP_ACCEPT_LANGUAGE</td><td style="vertical-align:top;">:</td><td><div>en-US,en;q=0.5</div></td></tr><tr><td style="font-weight:bold;vertical-align:top;">HTTP_CONNECTION</td><td style="vertical-align:top;">:</td><td><div>close</div></td></tr><tr><td style="font-weight:bold;vertical-align:top;">HTTP_COOKIE</td><td style="vertical-align:top;">:</td><td><div>_ga=GA1.2.1168300973.1452644018; session_id_welcome=169.233.212.201-e84db275-fef5-4b79-ab46-de0d701abef0; session_id_admin=169.233.212.201-b4efc9ed-8ec7-47d8-ae75-9744f69ce0cc; session_id_slugstock=169.233.212.201-5949cd38-c621-4ab6-8418-c4520cf9416f; session_id_basecode=169.233.212.201-0f32e4d2-aeab-42c7-ad3c-3b1d86facf8f</div></td></tr><tr><td style="font-weight:bold;vertical-align:top;">HTTP_HOST</td><td style="vertical-align:top;">:</td><td><div>slugstock.pythonanywhere.com</div></td></tr><tr><td style="font-weight:bold;vertical-align:top;">HTTP_REFERER</td><td style="vertical-align:top;">:</td><td><div>https://slugstock.pythonanywhere.com/SlugStock/appadmin/index</div></td></tr><tr><td style="font-weight:bold;vertical-align:top;">HTTP_USER_AGENT</td><td style="vertical-align:top;">:</td><td><div>Mozilla/5.0 (Windows NT 6.3; WOW64; rv:43.0) Gecko/20100101 Firefox/43.0</div></td></tr><tr><td style="font-weight:bold;vertical-align:top;">HTTP_X_FORWARDED_FOR</td><td style="vertical-align:top;">:</td><td><div>169.233.212.201</div></td></tr><tr><td style="font-weight:bold;vertical-align:top;">HTTP_X_REAL_IP</td><td style="vertical-align:top;">:</td><td><div>169.233.212.201</div></td></tr><tr><td style="font-weight:bold;vertical-align:top;">PATH_INFO</td><td style="vertical-align:top;">:</td><td><div>/SlugStock/appadmin/select/db</div></td></tr><tr><td style="font-weight:bold;vertical-align:top;">QUERY_STRING</td><td style="vertical-align:top;">:</td><td><div>query=db.historic.id%3E0</div></td></tr><tr><td style="font-weight:bold;vertical-align:top;">REMOTE_ADDR</td><td style="vertical-align:top;">:</td><td><div>10.169.229.133</div></td></tr><tr><td style="font-weight:bold;vertical-align:top;">REMOTE_PORT</td><td style="vertical-align:top;">:</td><td><div>35466</div></td></tr><tr><td style="font-weight:bold;vertical-align:top;">REQUEST_METHOD</td><td style="vertical-align:top;">:</td><td><div>GET</div></td></tr><tr><td style="font-weight:bold;vertical-align:top;">REQUEST_URI</td><td style="vertical-align:top;">:</td><td><div>/SlugStock/appadmin/select/db?query=db.historic.id%3E0</div></td></tr><tr><td style="font-weight:bold;vertical-align:top;">SCRIPT_NAME</td><td style="vertical-align:top;">:</td><td><div></div></td></tr><tr><td style="font-weight:bold;vertical-align:top;">SERVER_NAME</td><td style="vertical-align:top;">:</td><td><div>slugstock.pythonanywhere.com</div></td></tr><tr><td style="font-weight:bold;vertical-align:top;">SERVER_PORT</td><td style="vertical-align:top;">:</td><td><div>443</div></td></tr><tr><td style="font-weight:bold;vertical-align:top;">SERVER_PROTOCOL</td><td style="vertical-align:top;">:</td><td><div>HTTP/1.1</div></td></tr><tr><td style="font-weight:bold;vertical-align:top;">app_folders</td><td style="vertical-align:top;">:</td><td><div>set([&#x27;/home/SlugStock/web2py/applications/basecode/&#x27;, &#x27;/home/SlugStock/web2py/applications/examples/&#x27;, &#x27;/home/SlugStock/web2py/applications/SlugStock/&#x27;, &#x27;/home/SlugStock/web2py/applications/welcome/&#x27;, &#x27;/home/SlugStock/web2py/applications/admin/&#x27;])</div></td></tr><tr><td style="font-weight:bold;vertical-align:top;">applications_parent</td><td style="vertical-align:top;">:</td><td><div>/home/SlugStock/web2py</div></td></tr><tr><td style="font-weight:bold;vertical-align:top;">content_length</td><td style="vertical-align:top;">:</td><td><div></div></td></tr><tr><td style="font-weight:bold;vertical-align:top;">content_type</td><td style="vertical-align:top;">:</td><td><div></div></td></tr><tr><td style="font-weight:bold;vertical-align:top;">db_sessions</td><td style="vertical-align:top;">:</td><td><div>set([])</div></td></tr><tr><td style="font-weight:bold;vertical-align:top;">debugging</td><td style="vertical-align:top;">:</td><td><div>True</div></td></tr><tr><td style="font-weight:bold;vertical-align:top;">document_root</td><td style="vertical-align:top;">:</td><td><div>/usr/local/openresty/nginx/html</div></td></tr><tr><td style="font-weight:bold;vertical-align:top;">gluon_parent</td><td style="vertical-align:top;">:</td><td><div>/home/SlugStock/web2py</div></td></tr><tr><td style="font-weight:bold;vertical-align:top;">http_accept</td><td style="vertical-align:top;">:</td><td><div>text/html,application/xhtml+xml,application/xml;q=0.9,*/*;q=0.8</div></td></tr><tr><td style="font-weight:bold;vertical-align:top;">http_accept_encoding</td><td style="vertical-align:top;">:</td><td><div>gzip, deflate</div></td></tr><tr><td style="font-weight:bold;vertical-align:top;">http_accept_language</td><td style="vertical-align:top;">:</td><td><div>en-US,en;q=0.5</div></td></tr><tr><td style="font-weight:bold;vertical-align:top;">http_connection</td><td style="vertical-align:top;">:</td><td><div>close</div></td></tr><tr><td style="font-weight:bold;vertical-align:top;">http_cookie</td><td style="vertical-align:top;">:</td><td><div>_ga=GA1.2.1168300973.1452644018; session_id_welcome=169.233.212.201-e84db275-fef5-4b79-ab46-de0d701abef0; session_id_admin=169.233.212.201-b4efc9ed-8ec7-47d8-ae75-9744f69ce0cc; session_id_slugstock=169.233.212.201-5949cd38-c621-4ab6-8418-c4520cf9416f; session_id_basecode=169.233.212.201-0f32e4d2-aeab-42c7-ad3c-3b1d86facf8f</div></td></tr><tr><td style="font-weight:bold;vertical-align:top;">http_host</td><td style="vertical-align:top;">:</td><td><div>slugstock.pythonanywhere.com</div></td></tr><tr><td style="font-weight:bold;vertical-align:top;">http_referer</td><td style="vertical-align:top;">:</td><td><div>https://slugstock.pythonanywhere.com/SlugStock/appadmin/index</div></td></tr><tr><td style="font-weight:bold;vertical-align:top;">http_user_agent</td><td style="vertical-align:top;">:</td><td><div>Mozilla/5.0 (Windows NT 6.3; WOW64; rv:43.0) Gecko/20100101 Firefox/43.0</div></td></tr><tr><td style="font-weight:bold;vertical-align:top;">http_x_forwarded_for</td><td style="vertical-align:top;">:</td><td><div>169.233.212.201</div></td></tr><tr><td style="font-weight:bold;vertical-align:top;">http_x_real_ip</td><td style="vertical-align:top;">:</td><td><div>169.233.212.201</div></td></tr><tr><td style="font-weight:bold;vertical-align:top;">https</td><td style="vertical-align:top;">:</td><td><div>on</div></td></tr><tr><td style="font-weight:bold;vertical-align:top;">is_jython</td><td style="vertical-align:top;">:</td><td><div>False</div></td></tr><tr><td style="font-weight:bold;vertical-align:top;">is_pypy</td><td style="vertical-align:top;">:</td><td><div>False</div></td></tr><tr><td style="font-weight:bold;vertical-align:top;">is_source</td><td style="vertical-align:top;">:</td><td><div>True</div></td></tr><tr><td style="font-weight:bold;vertical-align:top;">local_hosts</td><td style="vertical-align:top;">:</td><td><div><table><tr><td><div>slugstock.pythonanywhere.com</div></td></tr><tr><td><div>::ffff:127.0.0.1</div></td></tr><tr><td><div>::1</div></td></tr><tr><td><div>giles-liveweb4</div></td></tr><tr><td><div>50.19.109.98</div></td></tr><tr><td><div>127.0.0.1</div></td></tr><tr><td><div>localhost</div></td></tr></table></div></td></tr><tr><td style="font-weight:bold;vertical-align:top;">path_info</td><td style="vertical-align:top;">:</td><td><div>/SlugStock/appadmin/select/db</div></td></tr><tr><td style="font-weight:bold;vertical-align:top;">query_string</td><td style="vertical-align:top;">:</td><td><div>query=db.historic.id%3E0</div></td></tr><tr><td style="font-weight:bold;vertical-align:top;">remote_addr</td><td style="vertical-align:top;">:</td><td><div>10.169.229.133</div></td></tr><tr><td style="font-weight:bold;vertical-align:top;">remote_port</td><td style="vertical-align:top;">:</td><td><div>35466</div></td></tr><tr><td style="font-weight:bold;vertical-align:top;">request_method</td><td style="vertical-align:top;">:</td><td><div>GET</div></td></tr><tr><td style="font-weight:bold;vertical-align:top;">request_uri</td><td style="vertical-align:top;">:</td><td><div>/SlugStock/appadmin/select/db?query=db.historic.id%3E0</div></td></tr><tr><td style="font-weight:bold;vertical-align:top;">script_name</td><td style="vertical-align:top;">:</td><td><div></div></td></tr><tr><td style="font-weight:bold;vertical-align:top;">server_name</td><td style="vertical-align:top;">:</td><td><div>slugstock.pythonanywhere.com</div></td></tr><tr><td style="font-weight:bold;vertical-align:top;">server_port</td><td style="vertical-align:top;">:</td><td><div>443</div></td></tr><tr><td style="font-weight:bold;vertical-align:top;">server_protocol</td><td style="vertical-align:top;">:</td><td><div>HTTP/1.1</div></td></tr><tr><td style="font-weight:bold;vertical-align:top;">uwsgi.node</td><td style="vertical-align:top;">:</td><td><div>giles-liveweb4</div></td></tr><tr><td style="font-weight:bold;vertical-align:top;">uwsgi.version</td><td style="vertical-align:top;">:</td><td><div>2.0.5.1</div></td></tr><tr><td style="font-weight:bold;vertical-align:top;">uwsgi_node</td><td style="vertical-align:top;">:</td><td><div>giles-liveweb4</div></td></tr><tr><td style="font-weight:bold;vertical-align:top;">uwsgi_version</td><td style="vertical-align:top;">:</td><td><div>2.0.5.1</div></td></tr><tr><td style="font-weight:bold;vertical-align:top;">web2py_path</td><td style="vertical-align:top;">:</td><td><div>/home/SlugStock/web2py</div></td></tr><tr><td style="font-weight:bold;vertical-align:top;">web2py_version</td><td style="vertical-align:top;">:</td><td><div>2.12.3-stable+timestamp.2015.08.19.00.18.03</div></td></tr><tr><td style="font-weight:bold;vertical-align:top;">wsgi.errors</td><td style="vertical-align:top;">:</td><td><div>&lt;uwsgi_file__bin_user_wsgi_wrapper.ErrorLogFile object at 0x7fbbc3698090&gt;</div></td></tr><tr><td style="font-weight:bold;vertical-align:top;">wsgi.file_wrapper</td><td style="vertical-align:top;">:</td><td><div>&lt;built-in function uwsgi_sendfile&gt;</div></td></tr><tr><td style="font-weight:bold;vertical-align:top;">wsgi.input</td><td style="vertical-align:top;">:</td><td><div>&lt;uwsgi._Input object at 0x7fbbcda05e70&gt;</div></td></tr><tr><td style="font-weight:bold;vertical-align:top;">wsgi.multiprocess</td><td style="vertical-align:top;">:</td><td><div>False</div></td></tr><tr><td style="font-weight:bold;vertical-align:top;">wsgi.multithread</td><td style="vertical-align:top;">:</td><td><div>False</div></td></tr><tr><td style="font-weight:bold;vertical-align:top;">wsgi.run_once</td><td style="vertical-align:top;">:</td><td><div>False</div></td></tr><tr><td style="font-weight:bold;vertical-align:top;">wsgi.url_scheme</td><td style="vertical-align:top;">:</td><td><div>https</div></td></tr><tr><td style="font-weight:bold;vertical-align:top;">wsgi.version</td><td style="vertical-align:top;">:</td><td><div><table><tr><td><div>1</div></td></tr><tr><td><div>0</div></td></tr></table></div></td></tr><tr><td style="font-weight:bold;vertical-align:top;">wsgi_errors</td><td style="vertical-align:top;">:</td><td><div>&lt;uwsgi_file__bin_user_wsgi_wrapper.ErrorLogFile object at 0x7fbbc3698090&gt;</div></td></tr><tr><td style="font-weight:bold;vertical-align:top;">wsgi_file_wrapper</td><td style="vertical-align:top;">:</td><td><div>&lt;built-in function uwsgi_sendfile&gt;</div></td></tr><tr><td style="font-weight:bold;vertical-align:top;">wsgi_input</td><td style="vertical-align:top;">:</td><td><div>&lt;uwsgi._Input object at 0x7fbbcda05e70&gt;</div></td></tr><tr><td style="font-weight:bold;vertical-align:top;">wsgi_multiprocess</td><td style="vertical-align:top;">:</td><td><div>False</div></td></tr><tr><td style="font-weight:bold;vertical-align:top;">wsgi_multithread</td><td style="vertical-align:top;">:</td><td><div>False</div></td></tr><tr><td style="font-weight:bold;vertical-align:top;">wsgi_run_once</td><td style="vertical-align:top;">:</td><td><div>False</div></td></tr><tr><td style="font-weight:bold;vertical-align:top;">wsgi_url_scheme</td><td style="vertical-align:top;">:</td><td><div>https</div></td></tr><tr><td style="font-weight:bold;vertical-align:top;">wsgi_version</td><td style="vertical-align:top;">:</td><td><div><table><tr><td><div>1</div></td></tr><tr><td><div>0</div></td></tr></table></div></td></tr></table></div></td></tr><tr><td style="font-weight:bold;vertical-align:top;">extension</td><td style="vertical-align:top;">:</td><td><div>html</div></td></tr><tr><td style="font-weight:bold;vertical-align:top;">folder</td><td style="vertical-align:top;">:</td><td><div>/home/SlugStock/web2py/applications/SlugStock/</div></td></tr><tr><td style="font-weight:bold;vertical-align:top;">function</td><td style="vertical-align:top;">:</td><td><div>select</div></td></tr><tr><td style="font-weight:bold;vertical-align:top;">global_settings</td><td style="vertical-align:top;">:</td><td><div><table><tr><td style="font-weight:bold;vertical-align:top;">app_folders</td><td style="vertical-align:top;">:</td><td><div>set([&#x27;/home/SlugStock/web2py/applications/basecode/&#x27;, &#x27;/home/SlugStock/web2py/applications/examples/&#x27;, &#x27;/home/SlugStock/web2py/applications/SlugStock/&#x27;, &#x27;/home/SlugStock/web2py/applications/welcome/&#x27;, &#x27;/home/SlugStock/web2py/applications/admin/&#x27;])</div></td></tr><tr><td style="font-weight:bold;vertical-align:top;">applications_parent</td><td style="vertical-align:top;">:</td><td><div>/home/SlugStock/web2py</div></td></tr><tr><td style="font-weight:bold;vertical-align:top;">db_sessions</td><td style="vertical-align:top;">:</td><td><div>set([])</div></td></tr><tr><td style="font-weight:bold;vertical-align:top;">debugging</td><td style="vertical-align:top;">:</td><td><div>True</div></td></tr><tr><td style="font-weight:bold;vertical-align:top;">gluon_parent</td><td style="vertical-align:top;">:</td><td><div>/home/SlugStock/web2py</div></td></tr><tr><td style="font-weight:bold;vertical-align:top;">is_jython</td><td style="vertical-align:top;">:</td><td><div>False</div></td></tr><tr><td style="font-weight:bold;vertical-align:top;">is_pypy</td><td style="vertical-align:top;">:</td><td><div>False</div></td></tr><tr><td style="font-weight:bold;vertical-align:top;">is_source</td><td style="vertical-align:top;">:</td><td><div>True</div></td></tr><tr><td style="font-weight:bold;vertical-align:top;">local_hosts</td><td style="vertical-align:top;">:</td><td><div><table><tr><td><div>slugstock.pythonanywhere.com</div></td></tr><tr><td><div>::ffff:127.0.0.1</div></td></tr><tr><td><div>::1</div></td></tr><tr><td><div>giles-liveweb4</div></td></tr><tr><td><div>50.19.109.98</div></td></tr><tr><td><div>127.0.0.1</div></td></tr><tr><td><div>localhost</div></td></tr></table></div></td></tr><tr><td style="font-weight:bold;vertical-align:top;">web2py_version</td><td style="vertical-align:top;">:</td><td><div>2.12.3-stable+timestamp.2015.08.19.00.18.03</div></td></tr></table></div></td></tr><tr><td style="font-weight:bold;vertical-align:top;">is_https</td><td style="vertical-align:top;">:</td><td><div>True</div></td></tr><tr><td style="font-weight:bold;vertical-align:top;">is_local</td><td style="vertical-align:top;">:</td><td><div>False</div></td></tr><tr><td style="font-weight:bold;vertical-align:top;">is_restful</td><td style="vertical-align:top;">:</td><td><div>False</div></td></tr><tr><td style="font-weight:bold;vertical-align:top;">is_sheduler</td><td style="vertical-align:top;">:</td><td><div>None</div></td></tr><tr><td style="font-weight:bold;vertical-align:top;">is_shell</td><td style="vertical-align:top;">:</td><td><div>None</div></td></tr><tr><td style="font-weight:bold;vertical-align:top;">now</td><td style="vertical-align:top;">:</td><td><div>datetime.datetime(2016, 1, 24, 22, 54, 20, 823610)</div></td></tr><tr><td style="font-weight:bold;vertical-align:top;">raw_args</td><td style="vertical-align:top;">:</td><td><div>db</div></td></tr><tr><td style="font-weight:bold;vertical-align:top;">raw_extension</td><td style="vertical-align:top;">:</td><td><div>None</div></td></tr><tr><td style="font-weight:bold;vertical-align:top;">url</td><td style="vertical-align:top;">:</td><td><div>/SlugStock/appadmin/select/db</div></td></tr><tr><td style="font-weight:bold;vertical-align:top;">utcnow</td><td style="vertical-align:top;">:</td><td><div>datetime.datetime(2016, 1, 24, 22, 54, 20, 823624)</div></td></tr><tr><td style="font-weight:bold;vertical-align:top;">wsgi</td><td style="vertical-align:top;">:</td><td><div>&lt;gluon.main.LazyWSGI object at 0x7fbbb1db5710&gt;</div></td></tr></table></div>'
tRp58
sS'frames'
p59
(lp60
(dp61
S'file'
p62
S'/home/SlugStock/web2py/gluon/restricted.py'
p63
sS'dump'
p64
(dp65
S'environment'
p66
S"{'A': <class 'gluon.html.A'>, 'ANY_OF': <class 'gluon.validators.ANY_OF'>, 'ASSIGNJS': <function ASSIGNJS>, 'AppConfig': <function AppConfig>, 'Auth': <class 'gluon.tools.Auth'>, 'B': <class 'gluon.html.B'>, 'BEAUTIFY': <class 'gluon.html.BEAUTIFY'>, 'BODY': <class 'gluon.html.BODY'>, 'BR': <class 'gluon.html.BR'>, 'BUTTON': <class 'gluon.html.BUTTON'>, ...}"
p67
sS'ccode'
p68
S'<code object <module> at 0x7fbbb1f0cd30, file "/...lications/SlugStock/views/appadmin.html", line 1>'
p69
ssS'lnum'
p70
I227
sS'lines'
p71
(dp72
I224
S'            ccode = code'
p73
sI225
S'        else:'
p74
sI226
S'            ccode = compile2(code, layer)'
p75
sI227
S'        exec ccode in environment'
p76
sI228
S'    except HTTP:'
p77
sI229
S'        raise'
p78
sI230
S'    except RestrictedError:'
p79
sI231
S'        # do not encapsulate (obfuscate) the original RestrictedError'
p80
sI222
S'    try:'
p81
sI223
S'        if isinstance(code, types.CodeType):'
p82
ssS'call'
p83
S'(code=\'response.write(\\\'<!DOCTYPE html>\\\\n<!--[if (gt IE ..."></script>\\\\n  </body>\\\\n</html>\\\\n\\\', escape=False)\', environment={\'A\': <class \'gluon.html.A\'>, \'ANY_OF\': <class \'gluon.validators.ANY_OF\'>, \'ASSIGNJS\': <function ASSIGNJS>, \'AppConfig\': <function AppConfig>, \'Auth\': <class \'gluon.tools.Auth\'>, \'B\': <class \'gluon.html.B\'>, \'BEAUTIFY\': <class \'gluon.html.BEAUTIFY\'>, \'BODY\': <class \'gluon.html.BODY\'>, \'BR\': <class \'gluon.html.BR\'>, \'BUTTON\': <class \'gluon.html.BUTTON\'>, ...}, layer=\'/home/SlugStock/web2py/applications/SlugStock/views/appadmin.html\')'
p84
sS'func'
p85
S'restricted'
p86
sa(dp87
g62
S'/home/SlugStock/web2py/applications/SlugStock/views/appadmin.html'
p88
sg64
(dp89
S'ram'
p90
S'undefined'
p91
ssg70
I175
sg71
(dp92
I166
S'        response.write(A(T(\'next %s rows\') % step,_href=URL(\'select\',args=request.args[0],vars=dict(start=start+step)),_class="btn btn-default"))'
p93
sI167
S'        pass'
p94
sI168
S"    response.write('\\n    ', escape=False)"
p95
sI169
S'    if rows:'
p96
sI170
S'        response.write(\'\\n       <div style="overflow:auto; width:80%;">\\n       \', escape=False)'
p97
sI171
S'        linkto = lambda f, t, r: URL(\'update\', args=[request.args[0], r, f]) if f else "#"'
p98
sI172
S"        response.write('\\n       ', escape=False)"
p99
sI173
S"        upload=URL('download',args=request.args[0])"
p100
sI174
S"        response.write('\\n       ', escape=False)"
p101
sI175
S"        response.write(SQLTABLE(rows,linkto,upload,orderby=True,_class='sortable'))"
p102
sI176
S"        response.write('\\n       </div>\\n    ', escape=False)"
p103
sI177
S'        pass'
p104
sI178
S"    response.write('\\n    <br/><br/><h3>', escape=False)"
p105
sI179
S'    response.write(T("Import/Export"))'
p106
sI180
S'    response.write(\'</h3><br/>\\n    <a href="\', escape=False)'
p107
sI181
S"    response.write(URL('csv',args=request.args[0],vars=dict(query=query)))"
p108
sI182
S'    response.write(\'" class="btn btn-default">\', escape=False)'
p109
sI183
S'    response.write(T("export as csv file"))'
p110
sI184
S"    response.write('</a>\\n  ', escape=False)"
p111
sI185
S"    response.write(formcsv or '')"
p112
ssg83
S'()'
p113
sg85
S'<module>'
p114
sa(dp115
g62
S'/home/SlugStock/web2py/gluon/sqlhtml.py'
p116
sg64
(dp117
S'builtinstr'
p118
S"<type 'str'>"
p119
sS'field'
p120
S'<pydal.objects.Field object>'
p121
sS'r'
S"'2018-01-24'"
p122
sS'field.formatter'
p123
S'<bound method Field.formatter of <pydal.objects.Field object>>'
p124
ssg70
I3283
sg71
(dp125
I3278
S'                    elif r:'
p126
sI3279
S"                        r = current.T('file')"
p127
sI3280
S'                    else:'
p128
sI3281
S"                        r = ''"
p129
sI3282
S"                elif field.type in ['string', 'text']:"
p130
sI3283
S'                    r = str(field.formatter(r))'
p131
sI3284
S'                    truncate_by = truncate'
p132
sI3285
S'                    if headers != {}:  # new implement dict'
p133
sI3286
S'                        if isinstance(headers[colname], dict):'
p134
sI3287
S"                            if isinstance(headers[colname]['truncate'], int):"
p135
ssg83
S"(self=<gluon.sqlhtml.SQLTABLE object>, sqlrows=<Rows (1)>, linkto=<function <lambda>>, upload='/SlugStock/appadmin/download/db', orderby=True, headers={}, truncate=16, columns=['historic.id', 'historic.ticker', 'historic.Date', 'historic.Open', 'historic.High', 'historic.Low', 'historic.Close', 'historic.Volume', 'historic.Adj'], th_link='', extracolumns=None, selectid=None, renderstyle=False, cid=None, colgroup=False, **attributes={'_class': 'sortable'})"
p136
sg85
g50
sa(dp137
g62
S'/home/SlugStock/web2py/gluon/packages/dal/pydal/objects.py'
p138
sg64
(dp139
S'item'
p140
S'<gluon.validators.IS_DATE object>'
p141
sS'item.formatter'
p142
S'<bound method IS_DATE.formatter of <gluon.validators.IS_DATE object>>'
p143
sS'value'
p144
S"'2018-01-24'"
p145
ssg70
I1615
sg71
(dp146
I1610
S'        else:'
p147
sI1611
S'            requires = copy.copy(requires)'
p148
sI1612
S'        requires.reverse()'
p149
sI1613
S'        for item in requires:'
p150
sI1614
S"            if hasattr(item, 'formatter'):"
p151
sI1615
S'                value = item.formatter(value)'
p152
sI1616
S'        return value'
p153
sI1617
S''
sI1618
S'    def validate(self, value):'
p154
sI1619
S'        if not self.requires or self.requires == DEFAULT:'
p155
ssg83
S"(self=<pydal.objects.Field object>, value='2018-01-24')"
p156
sg85
S'formatter'
p157
sa(dp158
g62
S'/home/SlugStock/web2py/gluon/validators.py'
p159
sg64
(dp160
S'value.year'
p161
g91
sS'value'
p162
S"'2018-01-24'"
p163
sS'year'
p164
g91
ssg70
I2200
sg71
(dp165
I2195
S''
sI2196
S'    def formatter(self, value):'
p166
sI2197
S'        if value is None:'
p167
sI2198
S'            return None'
p168
sI2199
S'        format = self.format'
p169
sI2200
S'        year = value.year'
p170
sI2201
S"        y = '%.4i' % year"
p171
sI2202
S"        format = format.replace('%y', y[-2:])"
p172
sI2203
S"        format = format.replace('%Y', y)"
p173
sI2204
S'        if year < 1900:'
p174
ssg83
S"(self=<gluon.validators.IS_DATE object>, value='2018-01-24')"
p175
sg85
g157
sasS'pyver'
p176
S'Python 2.7.6: /usr/local/bin/uwsgi (prefix: /usr)'
p177
sS'session'
p178
g57
(S's9\x01\x00\x00<div><table><tr><td style="font-weight:bold;vertical-align:top;">last_orderby</td><td style="vertical-align:top;">:</td><td><div>None</div></td></tr><tr><td style="font-weight:bold;vertical-align:top;">last_query</td><td style="vertical-align:top;">:</td><td><div>db.historic.id&gt;0</div></td></tr></table></div>'
tRp179
sS'etype'
p180
S"<type 'exceptions.AttributeError'>"
p181
sS'date'
p182
S'Sun Jan 24 22:54:20 2016'
p183
sS'response'
p184
g57
(S's\xb6 \x00\x00<div><table><tr><td style="font-weight:bold;vertical-align:top;">body</td><td style="vertical-align:top;">:</td><td><div>&lt;cStringIO.StringO object at 0x7fbbb2c0e8f0&gt;</div></td></tr><tr><td style="font-weight:bold;vertical-align:top;">cookies</td><td style="vertical-align:top;">:</td><td><div><table><tr><td style="font-weight:bold;vertical-align:top;">session_id_slugstock</td><td style="vertical-align:top;">:</td><td><div>169.233.212.201-5949cd38-c621-4ab6-8418-c4520cf9416f<table><tr><td style="font-weight:bold;vertical-align:top;">comment</td><td style="vertical-align:top;">:</td><td><div></div></td></tr><tr><td style="font-weight:bold;vertical-align:top;">domain</td><td style="vertical-align:top;">:</td><td><div></div></td></tr><tr><td style="font-weight:bold;vertical-align:top;">expires</td><td style="vertical-align:top;">:</td><td><div></div></td></tr><tr><td style="font-weight:bold;vertical-align:top;">httponly</td><td style="vertical-align:top;">:</td><td><div></div></td></tr><tr><td style="font-weight:bold;vertical-align:top;">max-age</td><td style="vertical-align:top;">:</td><td><div></div></td></tr><tr><td style="font-weight:bold;vertical-align:top;">path</td><td style="vertical-align:top;">:</td><td><div>/</div></td></tr><tr><td style="font-weight:bold;vertical-align:top;">secure</td><td style="vertical-align:top;">:</td><td><div></div></td></tr><tr><td style="font-weight:bold;vertical-align:top;">version</td><td style="vertical-align:top;">:</td><td><div></div></td></tr></table></div></td></tr></table></div></td></tr><tr><td style="font-weight:bold;vertical-align:top;">delimiters</td><td style="vertical-align:top;">:</td><td><div><table><tr><td><div>{{</div></td></tr><tr><td><div>}}</div></td></tr></table></div></td></tr><tr><td style="font-weight:bold;vertical-align:top;">files</td><td style="vertical-align:top;">:</td><td><div><table><tr><td><div>/SlugStock/static/js/jquery.js</div></td></tr><tr><td><div>/SlugStock/static/css/calendar.css</div></td></tr><tr><td><div>/SlugStock/static/js/calendar.js</div></td></tr><tr><td><div>/SlugStock/static/js/web2py.js</div></td></tr></table></div></td></tr><tr><td style="font-weight:bold;vertical-align:top;">flash</td><td style="vertical-align:top;">:</td><td><div></div></td></tr><tr><td style="font-weight:bold;vertical-align:top;">form_label_separator</td><td style="vertical-align:top;">:</td><td><div>: </div></td></tr><tr><td style="font-weight:bold;vertical-align:top;">formstyle</td><td style="vertical-align:top;">:</td><td><div>table3cols</div></td></tr><tr><td style="font-weight:bold;vertical-align:top;">generic_patterns</td><td style="vertical-align:top;">:</td><td><div><table><tr><td><div>*</div></td></tr></table></div></td></tr><tr><td style="font-weight:bold;vertical-align:top;">google_analytics_id</td><td style="vertical-align:top;">:</td><td><div>None</div></td></tr><tr><td style="font-weight:bold;vertical-align:top;">headers</td><td style="vertical-align:top;">:</td><td><div><table><tr><td style="font-weight:bold;vertical-align:top;">X-Powered-By</td><td style="vertical-align:top;">:</td><td><div>web2py</div></td></tr></table></div></td></tr><tr><td style="font-weight:bold;vertical-align:top;">logo</td><td style="vertical-align:top;">:</td><td><div><a class="navbar-brand" href="http://www.web2py.com/" id="web2py-logo"><b>web<span>2</span>py</b>&trade;&nbsp;</a></div></td></tr><tr><td style="font-weight:bold;vertical-align:top;">menu</td><td style="vertical-align:top;">:</td><td><div><table><tr><td><div><table><tr><td><div>design</div></td></tr><tr><td><div>False</div></td></tr><tr><td><div>/admin/default/design/SlugStock</div></td></tr></table></div></td></tr><tr><td><div><table><tr><td><div>db</div></td></tr><tr><td><div>False</div></td></tr><tr><td><div>/SlugStock/appadmin/index</div></td></tr></table></div></td></tr><tr><td><div><table><tr><td><div>state</div></td></tr><tr><td><div>False</div></td></tr><tr><td><div>/SlugStock/appadmin/state</div></td></tr></table></div></td></tr><tr><td><div><table><tr><td><div>cache</div></td></tr><tr><td><div>False</div></td></tr><tr><td><div>/SlugStock/appadmin/ccache</div></td></tr></table></div></td></tr></table></div></td></tr><tr><td style="font-weight:bold;vertical-align:top;">meta</td><td style="vertical-align:top;">:</td><td><div><table><tr><td style="font-weight:bold;vertical-align:top;">author</td><td style="vertical-align:top;">:</td><td><div>Your Name &lt;you@example.com&gt;</div></td></tr><tr><td style="font-weight:bold;vertical-align:top;">description</td><td style="vertical-align:top;">:</td><td><div>a cool new app</div></td></tr><tr><td style="font-weight:bold;vertical-align:top;">generator</td><td style="vertical-align:top;">:</td><td><div>Web2py Web Framework</div></td></tr><tr><td style="font-weight:bold;vertical-align:top;">keywords</td><td style="vertical-align:top;">:</td><td><div>web2py, python, framework</div></td></tr></table></div></td></tr><tr><td style="font-weight:bold;vertical-align:top;">models_to_run</td><td style="vertical-align:top;">:</td><td><div><table><tr><td><div>^\\w+\\.py$</div></td></tr><tr><td><div>^appadmin/\\w+\\.py$</div></td></tr><tr><td><div>^appadmin/select/\\w+\\.py$</div></td></tr></table></div></td></tr><tr><td style="font-weight:bold;vertical-align:top;">postprocessing</td><td style="vertical-align:top;">:</td><td><div><table></table></div></td></tr><tr><td style="font-weight:bold;vertical-align:top;">session_client</td><td style="vertical-align:top;">:</td><td><div>169.233.212.201</div></td></tr><tr><td style="font-weight:bold;vertical-align:top;">session_cookie_compression_level</td><td style="vertical-align:top;">:</td><td><div>None</div></td></tr><tr><td style="font-weight:bold;vertical-align:top;">session_cookie_expires</td><td style="vertical-align:top;">:</td><td><div>None</div></td></tr><tr><td style="font-weight:bold;vertical-align:top;">session_cookie_key</td><td style="vertical-align:top;">:</td><td><div>None</div></td></tr><tr><td style="font-weight:bold;vertical-align:top;">session_data_name</td><td style="vertical-align:top;">:</td><td><div>session_data_slugstock</div></td></tr><tr><td style="font-weight:bold;vertical-align:top;">session_file</td><td style="vertical-align:top;">:</td><td><div>&lt;open file &#x27;/home/SlugStock/web2py/applications/SlugStock/sessions/094/11a/169.233.212.201-5949cd38-c621-4ab6-8418-c4520cf9416f&#x27;, mode &#x27;rb+&#x27; at 0x7fbbb1e92c00&gt;</div></td></tr><tr><td style="font-weight:bold;vertical-align:top;">session_filename</td><td style="vertical-align:top;">:</td><td><div>/home/SlugStock/web2py/applications/SlugStock/sessions/169.233.212.201-5949cd38-c621-4ab6-8418-c4520cf9416f</div></td></tr><tr><td style="font-weight:bold;vertical-align:top;">session_hash</td><td style="vertical-align:top;">:</td><td><div>44330aa505962d30a837fbfe489c7a73</div></td></tr><tr><td style="font-weight:bold;vertical-align:top;">session_id</td><td style="vertical-align:top;">:</td><td><div>169.233.212.201-5949cd38-c621-4ab6-8418-c4520cf9416f</div></td></tr><tr><td style="font-weight:bold;vertical-align:top;">session_id_name</td><td style="vertical-align:top;">:</td><td><div>session_id_slugstock</div></td></tr><tr><td style="font-weight:bold;vertical-align:top;">session_locked</td><td style="vertical-align:top;">:</td><td><div>True</div></td></tr><tr><td style="font-weight:bold;vertical-align:top;">session_masterapp</td><td style="vertical-align:top;">:</td><td><div>SlugStock</div></td></tr><tr><td style="font-weight:bold;vertical-align:top;">session_new</td><td style="vertical-align:top;">:</td><td><div>False</div></td></tr><tr><td style="font-weight:bold;vertical-align:top;">session_storage_type</td><td style="vertical-align:top;">:</td><td><div>file</div></td></tr><tr><td style="font-weight:bold;vertical-align:top;">status</td><td style="vertical-align:top;">:</td><td><div>200</div></td></tr><tr><td style="font-weight:bold;vertical-align:top;">subtitle</td><td style="vertical-align:top;">:</td><td><div>Database Administration (appadmin)</div></td></tr><tr><td style="font-weight:bold;vertical-align:top;">title</td><td style="vertical-align:top;">:</td><td><div>Slugstock</div></td></tr><tr><td style="font-weight:bold;vertical-align:top;">view</td><td style="vertical-align:top;">:</td><td><div>appadmin.html</div></td></tr></table></div>'
tRp185
sS'locals'
p186
(dp187
S'self'
p188
S'<gluon.validators.IS_DATE object>'
p189
sS'value'
p190
S"'2018-01-24'"
p191
sS'format'
p192
S"'%Y-%m-%d'"
p193
sssS'traceback'
p194
S'Traceback (most recent call last):\n  File "/home/SlugStock/web2py/gluon/restricted.py", line 227, in restricted\n    exec ccode in environment\n  File "/home/SlugStock/web2py/applications/SlugStock/views/appadmin.html", line 175, in <module>\n    {{if ram[\'bytes\'] > 524287:}}\n  File "/home/SlugStock/web2py/gluon/sqlhtml.py", line 3283, in __init__\n    r = str(field.formatter(r))\n  File "/home/SlugStock/web2py/gluon/packages/dal/pydal/objects.py", line 1615, in formatter\n    value = item.formatter(value)\n  File "/home/SlugStock/web2py/gluon/validators.py", line 2200, in formatter\n    year = value.year\nAttributeError: \'str\' object has no attribute \'year\'\n'
p195
s.